target datalayout = "e-m:e-p270:32:32-p271:32:32-p272:64:64-i64:64-i128:128-f80:128-n8:16:32:64-S128"
target triple = "x86_64-pc-linux-gnu"

%struct.slurm_conf_nodeset_t = type { ptr, ptr, ptr }

@.str.145 = private unnamed_addr constant [56 x i8] c"NodeSet with name %s overlaps with an existing NodeName\00", align 1

; Function Attrs: nounwind uwtable
define internal i32 @_validate_nodes_vs_nodeset(ptr noundef %0) #0 {
  %2 = alloca i32, align 4
  %3 = alloca ptr, align 8
  %4 = alloca ptr, align 8
  %5 = alloca ptr, align 8
  %6 = alloca i32, align 4
  %7 = alloca i32, align 4
  %8 = alloca i32, align 4
  store ptr %0, ptr %3, align 8
  call void @llvm.lifetime.start.p0(i64 8, ptr %4) #10
  store ptr null, ptr %4, align 8
  call void @llvm.lifetime.start.p0(i64 8, ptr %5) #10
  call void @llvm.lifetime.start.p0(i64 4, ptr %6) #10
  %9 = call i32 @slurm_conf_nodeset_array(ptr noundef %5)
  store i32 %9, ptr %6, align 4
  %10 = load ptr, ptr %3, align 8
  %11 = icmp ne ptr %10, null
  br i1 %11, label %13, label %12

12:                                               ; preds = %1
  store i32 0, ptr %2, align 4
  store i32 1, ptr %7, align 4
  br label %50

13:                                               ; preds = %1
  %14 = load ptr, ptr %3, align 8
  %15 = call ptr @hostlist_create(ptr noundef %14)
  store ptr %15, ptr %4, align 8
  call void @llvm.lifetime.start.p0(i64 4, ptr %8) #10
  store i32 0, ptr %8, align 4
  br label %16

16:                                               ; preds = %43, %13
  %17 = load i32, ptr %8, align 4
  %18 = load i32, ptr %6, align 4
  %19 = icmp slt i32 %17, %18
  br i1 %19, label %21, label %20

20:                                               ; preds = %16
  store i32 2, ptr %7, align 4
  br label %46

21:                                               ; preds = %16
  %22 = load ptr, ptr %4, align 8
  %23 = load ptr, ptr %5, align 8
  %24 = load i32, ptr %8, align 4
  %25 = sext i32 %24 to i64
  %26 = getelementptr inbounds ptr, ptr %23, i64 %25
  %27 = load ptr, ptr %26, align 8
  %28 = getelementptr inbounds nuw %struct.slurm_conf_nodeset_t, ptr %27, i32 0, i32 1
  %29 = load ptr, ptr %28, align 8
  %30 = call i32 @hostlist_find(ptr noundef %22, ptr noundef %29)
  %31 = icmp ne i32 %30, -1
  br i1 %31, label %32, label %42

32:                                               ; preds = %21
  %33 = load ptr, ptr %5, align 8
  %34 = load i32, ptr %8, align 4
  %35 = sext i32 %34 to i64
  %36 = getelementptr inbounds ptr, ptr %33, i64 %35
  %37 = load ptr, ptr %36, align 8
  %38 = getelementptr inbounds nuw %struct.slurm_conf_nodeset_t, ptr %37, i32 0, i32 1
  %39 = load ptr, ptr %38, align 8
  %40 = call i32 (ptr, ...) @error(ptr noundef @.str.145, ptr noundef %39)
  %41 = load ptr, ptr %4, align 8
  call void @hostlist_destroy(ptr noundef %41)
  store i32 2018, ptr %2, align 4
  store i32 1, ptr %7, align 4
  br label %46

42:                                               ; preds = %21
  br label %43

43:                                               ; preds = %42
  %44 = load i32, ptr %8, align 4
  %45 = add nsw i32 %44, 1
  store i32 %45, ptr %8, align 4
  br label %16, !llvm.loop !14

46:                                               ; preds = %32, %20
  call void @llvm.lifetime.end.p0(i64 4, ptr %8) #10
  %47 = load i32, ptr %7, align 4
  switch i32 %47, label %50 [
    i32 2, label %48
  ]

48:                                               ; preds = %46
  %49 = load ptr, ptr %4, align 8
  call void @hostlist_destroy(ptr noundef %49)
  store i32 0, ptr %2, align 4
  store i32 1, ptr %7, align 4
  br label %50

50:                                               ; preds = %48, %46, %12
  call void @llvm.lifetime.end.p0(i64 4, ptr %6) #10
  call void @llvm.lifetime.end.p0(i64 8, ptr %5) #10
  call void @llvm.lifetime.end.p0(i64 8, ptr %4) #10
  %51 = load i32, ptr %2, align 4
  ret i32 %51
}