; Function Attrs: nounwind uwtable
define internal fastcc range(i32 0, 2019) i32 @_validate_nodes_vs_nodeset(ptr noundef %0) unnamed_addr #0 {
  %2 = alloca ptr, align 8
  call void @llvm.lifetime.start.p0(i64 8, ptr nonnull %2) #15
  %3 = call i32 @slurm_conf_nodeset_array(ptr noundef nonnull %2) #15
  %.not = icmp eq ptr %0, null
  br i1 %.not, label %20, label %4

4:                                                ; preds = %1
  %5 = call ptr @hostlist_create(ptr noundef nonnull %0) #15
  %.not1516 = icmp sgt i32 %3, 0
  br i1 %.not1516, label %.lr.ph.preheader, label %.sink.split

.lr.ph.preheader:                                 ; preds = %4
  %wide.trip.count = zext nneg i32 %3 to i64
  br label %.lr.ph

6:                                                ; preds = %.lr.ph
  %indvars.iv.next = add nuw nsw i64 %indvars.iv, 1
  %exitcond.not = icmp eq i64 %indvars.iv.next, %wide.trip.count
  br i1 %exitcond.not, label %.sink.split, label %.lr.ph, !llvm.loop !13

.lr.ph:                                           ; preds = %.lr.ph.preheader, %6
  %indvars.iv = phi i64 [ 0, %.lr.ph.preheader ], [ %indvars.iv.next, %6 ]
  %7 = load ptr, ptr %2, align 8
  %8 = getelementptr inbounds nuw ptr, ptr %7, i64 %indvars.iv
  %9 = load ptr, ptr %8, align 8
  %10 = getelementptr inbounds nuw i8, ptr %9, i64 8
  %11 = load ptr, ptr %10, align 8
  %12 = call i32 @hostlist_find(ptr noundef %5, ptr noundef %11) #15
  %.not14 = icmp eq i32 %12, -1
  br i1 %.not14, label %6, label %13

13:                                               ; preds = %.lr.ph
  %14 = load ptr, ptr %2, align 8
  %15 = getelementptr inbounds nuw ptr, ptr %14, i64 %indvars.iv
  %16 = load ptr, ptr %15, align 8
  %17 = getelementptr inbounds nuw i8, ptr %16, i64 8
  %18 = load ptr, ptr %17, align 8
  %19 = call i32 (ptr, ...) @error(ptr noundef nonnull @.str.145, ptr noundef %18) #15
  br label %.sink.split

.sink.split:                                      ; preds = %6, %4, %13
  %.012.ph = phi i32 [ 2018, %13 ], [ 0, %4 ], [ 0, %6 ]
  call void @hostlist_destroy(ptr noundef %5) #15
  br label %20

20:                                               ; preds = %.sink.split, %1
  %.012 = phi i32 [ 0, %1 ], [ %.012.ph, %.sink.split ]
  call void @llvm.lifetime.end.p0(i64 8, ptr nonnull %2) #15
  ret i32 %.012
}